target datalayout = "e-m:e-p270:32:32-p271:32:32-p272:64:64-i64:64-i128:128-f80:128-n8:16:32:64-S128"
target triple = "x86_64-pc-linux-gnu"

%class.Sample_TileMesh = type <{ %class.Sample, i8, i8, [2 x i8], float, ptr, ptr, ptr, ptr, ptr, ptr, %struct.rcConfig, i32, i32, i32, float, i32, [3 x float], [3 x float], float, float, i32, [4 x i8] }>
%class.Sample = type { ptr, ptr, ptr, ptr, ptr, i8, float, float, float, float, float, float, float, float, float, float, float, float, float, i32, i8, i8, i8, ptr, [9 x ptr], ptr, %class.SampleDebugDraw }
%class.SampleDebugDraw = type { %class.DebugDrawGL }
%class.DebugDrawGL = type { %struct.duDebugDraw }
%struct.duDebugDraw = type { ptr }
%struct.rcConfig = type { i32, i32, i32, i32, float, float, [3 x float], [3 x float], float, i32, i32, i32, i32, float, i32, i32, i32, float, float }
%class.InputGeom = type { ptr, ptr, [3 x float], [3 x float], %struct.BuildSettings, i8, [1536 x float], [256 x float], [256 x i8], [256 x i8], [256 x i16], [256 x i32], i32, [256 x %struct.ConvexVolume], i32 }
%struct.BuildSettings = type { float, float, float, float, float, float, float, float, float, float, float, float, float, i32, [3 x float], [3 x float], float }
%struct.ConvexVolume = type { [36 x float], float, float, i32, i32 }
%struct.dtNavMeshParams = type { [3 x float], float, float, i32, i32 }

@.str.40 = private unnamed_addr constant [49 x i8] c"buildTiledNavigation: No vertices and triangles.\00", align 1
@.str.41 = private unnamed_addr constant [50 x i8] c"buildTiledNavigation: Could not allocate navmesh.\00", align 1
@.str.42 = private unnamed_addr constant [46 x i8] c"buildTiledNavigation: Could not init navmesh.\00", align 1
@.str.43 = private unnamed_addr constant [58 x i8] c"buildTiledNavigation: Could not init Detour navmesh query\00", align 1

; Function Attrs: mustprogress nounwind uwtable
define linkonce_odr dso_local noundef zeroext i1 @_Z14dtStatusFailedj(i32 noundef %0) #0 comdat {
  %2 = alloca i32, align 4
  store i32 %0, ptr %2, align 4
  %3 = load i32, ptr %2, align 4
  %4 = and i32 %3, -2147483648
  %5 = icmp ne i32 %4, 0
  ret i1 %5
}

; Function Attrs: mustprogress nounwind uwtable
define linkonce_odr dso_local void @_Z7rcVcopyPfPKf(ptr noundef %0, ptr noundef %1) #0 comdat {
  %3 = alloca ptr, align 8
  %4 = alloca ptr, align 8
  store ptr %0, ptr %3, align 8
  store ptr %1, ptr %4, align 8
  %5 = load ptr, ptr %4, align 8
  %6 = getelementptr inbounds float, ptr %5, i64 0
  %7 = load float, ptr %6, align 4
  %8 = load ptr, ptr %3, align 8
  %9 = getelementptr inbounds float, ptr %8, i64 0
  store float %7, ptr %9, align 4
  %10 = load ptr, ptr %4, align 8
  %11 = getelementptr inbounds float, ptr %10, i64 1
  %12 = load float, ptr %11, align 4
  %13 = load ptr, ptr %3, align 8
  %14 = getelementptr inbounds float, ptr %13, i64 1
  store float %12, ptr %14, align 4
  %15 = load ptr, ptr %4, align 8
  %16 = getelementptr inbounds float, ptr %15, i64 2
  %17 = load float, ptr %16, align 4
  %18 = load ptr, ptr %3, align 8
  %19 = getelementptr inbounds float, ptr %18, i64 2
  store float %17, ptr %19, align 4
  ret void
}

; Function Attrs: mustprogress nounwind uwtable
define linkonce_odr dso_local noundef ptr @_ZNK9InputGeom19getNavMeshBoundsMinEv(ptr noundef nonnull align 8 dereferenceable(50312) %0) #0 comdat align 2 {
  %2 = alloca ptr, align 8
  store ptr %0, ptr %2, align 8
  %3 = load ptr, ptr %2, align 8
  %4 = getelementptr inbounds %class.InputGeom, ptr %3, i32 0, i32 5
  %5 = load i8, ptr %4, align 4
  %6 = trunc i8 %5 to i1
  br i1 %6, label %7, label %10

7:                                                ; preds = %1
  %8 = getelementptr inbounds %class.InputGeom, ptr %3, i32 0, i32 4
  %9 = getelementptr inbounds %struct.BuildSettings, ptr %8, i32 0, i32 14
  br label %12

10:                                               ; preds = %1
  %11 = getelementptr inbounds %class.InputGeom, ptr %3, i32 0, i32 2
  br label %12

12:                                               ; preds = %10, %7
  %13 = phi ptr [ %9, %7 ], [ %11, %10 ]
  %14 = getelementptr inbounds [3 x float], ptr %13, i64 0, i64 0
  ret ptr %14
}

; Function Attrs: mustprogress nounwind uwtable
define linkonce_odr dso_local noundef ptr @_ZNK9InputGeom7getMeshEv(ptr noundef nonnull align 8 dereferenceable(50312) %0) #0 comdat align 2 {
  %2 = alloca ptr, align 8
  store ptr %0, ptr %2, align 8
  %3 = load ptr, ptr %2, align 8
  %4 = getelementptr inbounds %class.InputGeom, ptr %3, i32 0, i32 1
  %5 = load ptr, ptr %4, align 8
  ret ptr %5
}

; Function Attrs: mustprogress uwtable
define dso_local noundef zeroext i1 @_ZN15Sample_TileMesh11handleBuildEv(ptr noundef nonnull align 8 dereferenceable(404) %0) unnamed_addr #3 align 2 {
  %2 = alloca i1, align 1
  %3 = alloca ptr, align 8
  %4 = alloca %struct.dtNavMeshParams, align 4
  %5 = alloca i32, align 4
  store ptr %0, ptr %3, align 8
  %6 = load ptr, ptr %3, align 8
  %7 = getelementptr inbounds %class.Sample, ptr %6, i32 0, i32 1
  %8 = load ptr, ptr %7, align 8
  %9 = icmp ne ptr %8, null
  br i1 %9, label %10, label %15

10:                                               ; preds = %1
  %11 = getelementptr inbounds %class.Sample, ptr %6, i32 0, i32 1
  %12 = load ptr, ptr %11, align 8
  %13 = call noundef ptr @_ZNK9InputGeom7getMeshEv(ptr noundef nonnull align 8 dereferenceable(50312) %12)
  %14 = icmp ne ptr %13, null
  br i1 %14, label %18, label %15

15:                                               ; preds = %10, %1
  %16 = getelementptr inbounds %class.Sample, ptr %6, i32 0, i32 25
  %17 = load ptr, ptr %16, align 8
  call void (ptr, i32, ptr, ...) @_ZN9rcContext3logE13rcLogCategoryPKcz(ptr noundef nonnull align 8 dereferenceable(10) %17, i32 noundef 3, ptr noundef @.str.40)
  store i1 false, ptr %2, align 1
  br label %88

18:                                               ; preds = %10
  %19 = getelementptr inbounds %class.Sample, ptr %6, i32 0, i32 2
  %20 = load ptr, ptr %19, align 8
  call void @_Z13dtFreeNavMeshP9dtNavMesh(ptr noundef %20)
  %21 = call noundef ptr @_Z14dtAllocNavMeshv()
  %22 = getelementptr inbounds %class.Sample, ptr %6, i32 0, i32 2
  store ptr %21, ptr %22, align 8
  %23 = getelementptr inbounds %class.Sample, ptr %6, i32 0, i32 2
  %24 = load ptr, ptr %23, align 8
  %25 = icmp ne ptr %24, null
  br i1 %25, label %29, label %26

26:                                               ; preds = %18
  %27 = getelementptr inbounds %class.Sample, ptr %6, i32 0, i32 25
  %28 = load ptr, ptr %27, align 8
  call void (ptr, i32, ptr, ...) @_ZN9rcContext3logE13rcLogCategoryPKcz(ptr noundef nonnull align 8 dereferenceable(10) %28, i32 noundef 3, ptr noundef @.str.41)
  store i1 false, ptr %2, align 1
  br label %88

29:                                               ; preds = %18
  %30 = getelementptr inbounds %struct.dtNavMeshParams, ptr %4, i32 0, i32 0
  %31 = getelementptr inbounds [3 x float], ptr %30, i64 0, i64 0
  %32 = getelementptr inbounds %class.Sample, ptr %6, i32 0, i32 1
  %33 = load ptr, ptr %32, align 8
  %34 = call noundef ptr @_ZNK9InputGeom19getNavMeshBoundsMinEv(ptr noundef nonnull align 8 dereferenceable(50312) %33)
  call void @_Z7rcVcopyPfPKf(ptr noundef %31, ptr noundef %34)
  %35 = getelementptr inbounds %class.Sample_TileMesh, ptr %6, i32 0, i32 15
  %36 = load float, ptr %35, align 8
  %37 = getelementptr inbounds %class.Sample, ptr %6, i32 0, i32 6
  %38 = load float, ptr %37, align 4
  %39 = fmul float %36, %38
  %40 = getelementptr inbounds %struct.dtNavMeshParams, ptr %4, i32 0, i32 1
  store float %39, ptr %40, align 4
  %41 = getelementptr inbounds %class.Sample_TileMesh, ptr %6, i32 0, i32 15
  %42 = load float, ptr %41, align 8
  %43 = getelementptr inbounds %class.Sample, ptr %6, i32 0, i32 6
  %44 = load float, ptr %43, align 4
  %45 = fmul float %42, %44
  %46 = getelementptr inbounds %struct.dtNavMeshParams, ptr %4, i32 0, i32 2
  store float %45, ptr %46, align 4
  %47 = getelementptr inbounds %class.Sample_TileMesh, ptr %6, i32 0, i32 13
  %48 = load i32, ptr %47, align 8
  %49 = getelementptr inbounds %struct.dtNavMeshParams, ptr %4, i32 0, i32 3
  store i32 %48, ptr %49, align 4
  %50 = getelementptr inbounds %class.Sample_TileMesh, ptr %6, i32 0, i32 14
  %51 = load i32, ptr %50, align 4
  %52 = getelementptr inbounds %struct.dtNavMeshParams, ptr %4, i32 0, i32 4
  store i32 %51, ptr %52, align 4
  %53 = getelementptr inbounds %class.Sample, ptr %6, i32 0, i32 2
  %54 = load ptr, ptr %53, align 8
  %55 = call noundef i32 @_ZN9dtNavMesh4initEPK15dtNavMeshParams(ptr noundef nonnull align 8 dereferenceable(100) %54, ptr noundef %4)
  store i32 %55, ptr %5, align 4
  %56 = load i32, ptr %5, align 4
  %57 = call noundef zeroext i1 @_Z14dtStatusFailedj(i32 noundef %56)
  br i1 %57, label %58, label %61

58:                                               ; preds = %29
  %59 = getelementptr inbounds %class.Sample, ptr %6, i32 0, i32 25
  %60 = load ptr, ptr %59, align 8
  call void (ptr, i32, ptr, ...) @_ZN9rcContext3logE13rcLogCategoryPKcz(ptr noundef nonnull align 8 dereferenceable(10) %60, i32 noundef 3, ptr noundef @.str.42)
  store i1 false, ptr %2, align 1
  br label %88

61:                                               ; preds = %29
  %62 = getelementptr inbounds %class.Sample, ptr %6, i32 0, i32 3
  %63 = load ptr, ptr %62, align 8
  %64 = getelementptr inbounds %class.Sample, ptr %6, i32 0, i32 2
  %65 = load ptr, ptr %64, align 8
  %66 = call noundef i32 @_ZN14dtNavMeshQuery4initEPK9dtNavMeshi(ptr noundef nonnull align 8 dereferenceable(104) %63, ptr noundef %65, i32 noundef 2048)
  store i32 %66, ptr %5, align 4
  %67 = load i32, ptr %5, align 4
  %68 = call noundef zeroext i1 @_Z14dtStatusFailedj(i32 noundef %67)
  br i1 %68, label %69, label %72

69:                                               ; preds = %61
  %70 = getelementptr inbounds %class.Sample, ptr %6, i32 0, i32 25
  %71 = load ptr, ptr %70, align 8
  call void (ptr, i32, ptr, ...) @_ZN9rcContext3logE13rcLogCategoryPKcz(ptr noundef nonnull align 8 dereferenceable(10) %71, i32 noundef 3, ptr noundef @.str.43)
  store i1 false, ptr %2, align 1
  br label %88

72:                                               ; preds = %61
  %73 = getelementptr inbounds %class.Sample_TileMesh, ptr %6, i32 0, i32 2
  %74 = load i8, ptr %73, align 1
  %75 = trunc i8 %74 to i1
  br i1 %75, label %76, label %77

76:                                               ; preds = %72
  call void @_ZN15Sample_TileMesh13buildAllTilesEv(ptr noundef nonnull align 8 dereferenceable(404) %6)
  br label %77

77:                                               ; preds = %76, %72
  %78 = getelementptr inbounds %class.Sample, ptr %6, i32 0, i32 23
  %79 = load ptr, ptr %78, align 8
  %80 = icmp ne ptr %79, null
  br i1 %80, label %81, label %87

81:                                               ; preds = %77
  %82 = getelementptr inbounds %class.Sample, ptr %6, i32 0, i32 23
  %83 = load ptr, ptr %82, align 8
  %84 = load ptr, ptr %83, align 8
  %85 = getelementptr inbounds ptr, ptr %84, i64 3
  %86 = load ptr, ptr %85, align 8
  call void %86(ptr noundef nonnull align 8 dereferenceable(8) %83, ptr noundef %6)
  br label %87

87:                                               ; preds = %81, %77
  call void @_ZN6Sample14initToolStatesEPS_(ptr noundef nonnull align 8 dereferenceable(200) %6, ptr noundef %6)
  store i1 true, ptr %2, align 1
  br label %88

88:                                               ; preds = %87, %69, %58, %26, %15
  %89 = load i1, ptr %2, align 1
  ret i1 %89
}