; Function Attrs: mustprogress uwtable
define dso_local noundef zeroext i1 @_ZN15Sample_TileMesh11handleBuildEv(ptr noundef nonnull align 8 dereferenceable(404) %0) unnamed_addr #3 align 2 {
  %2 = alloca %struct.dtNavMeshParams, align 4
  %3 = getelementptr inbounds i8, ptr %0, i64 8
  %4 = load ptr, ptr %3, align 8
  %.not = icmp eq ptr %4, null
  br i1 %.not, label %8, label %5

5:                                                ; preds = %1
  %6 = getelementptr inbounds i8, ptr %4, i64 8
  %7 = load ptr, ptr %6, align 8
  %.not5 = icmp eq ptr %7, null
  br i1 %.not5, label %8, label %11

8:                                                ; preds = %5, %1
  %9 = getelementptr inbounds i8, ptr %0, i64 184
  %10 = load ptr, ptr %9, align 8
  tail call void (ptr, i32, ptr, ...) @_ZN9rcContext3logE13rcLogCategoryPKcz(ptr noundef nonnull align 8 dereferenceable(10) %10, i32 noundef 3, ptr noundef nonnull @.str.40)
  br label %68

11:                                               ; preds = %5
  %12 = getelementptr inbounds i8, ptr %0, i64 16
  %13 = load ptr, ptr %12, align 8
  tail call void @_Z13dtFreeNavMeshP9dtNavMesh(ptr noundef %13)
  %14 = tail call noundef ptr @_Z14dtAllocNavMeshv()
  store ptr %14, ptr %12, align 8
  %.not6 = icmp eq ptr %14, null
  br i1 %.not6, label %15, label %18

15:                                               ; preds = %11
  %16 = getelementptr inbounds i8, ptr %0, i64 184
  %17 = load ptr, ptr %16, align 8
  tail call void (ptr, i32, ptr, ...) @_ZN9rcContext3logE13rcLogCategoryPKcz(ptr noundef nonnull align 8 dereferenceable(10) %17, i32 noundef 3, ptr noundef nonnull @.str.41)
  br label %68

18:                                               ; preds = %11
  %19 = load ptr, ptr %3, align 8
  %20 = getelementptr inbounds i8, ptr %19, i64 124
  %21 = load i8, ptr %20, align 4
  %22 = and i8 %21, 1
  %.not.i = icmp eq i8 %22, 0
  %.v.i = select i1 %.not.i, i64 16, i64 96
  %23 = getelementptr inbounds i8, ptr %19, i64 %.v.i
  %24 = load float, ptr %23, align 4
  store float %24, ptr %2, align 4
  %25 = getelementptr inbounds i8, ptr %23, i64 4
  %26 = load float, ptr %25, align 4
  %27 = getelementptr inbounds i8, ptr %2, i64 4
  store float %26, ptr %27, align 4
  %28 = getelementptr inbounds i8, ptr %23, i64 8
  %29 = load float, ptr %28, align 4
  %30 = getelementptr inbounds i8, ptr %2, i64 8
  store float %29, ptr %30, align 4
  %31 = getelementptr inbounds i8, ptr %0, i64 360
  %32 = load float, ptr %31, align 8
  %33 = getelementptr inbounds i8, ptr %0, i64 44
  %34 = load float, ptr %33, align 4
  %35 = fmul float %32, %34
  %36 = getelementptr inbounds i8, ptr %2, i64 12
  store float %35, ptr %36, align 4
  %37 = getelementptr inbounds i8, ptr %2, i64 16
  store float %35, ptr %37, align 4
  %38 = getelementptr inbounds i8, ptr %0, i64 352
  %39 = getelementptr inbounds i8, ptr %2, i64 20
  %40 = load <2 x i32>, ptr %38, align 8
  store <2 x i32> %40, ptr %39, align 4
  %41 = call noundef i32 @_ZN9dtNavMesh4initEPK15dtNavMeshParams(ptr noundef nonnull align 8 dereferenceable(100) %14, ptr noundef nonnull %2)
  %42 = icmp slt i32 %41, 0
  br i1 %42, label %43, label %46

43:                                               ; preds = %18
  %44 = getelementptr inbounds i8, ptr %0, i64 184
  %45 = load ptr, ptr %44, align 8
  call void (ptr, i32, ptr, ...) @_ZN9rcContext3logE13rcLogCategoryPKcz(ptr noundef nonnull align 8 dereferenceable(10) %45, i32 noundef 3, ptr noundef nonnull @.str.42)
  br label %68

46:                                               ; preds = %18
  %47 = getelementptr inbounds i8, ptr %0, i64 24
  %48 = load ptr, ptr %47, align 8
  %49 = load ptr, ptr %12, align 8
  %50 = call noundef i32 @_ZN14dtNavMeshQuery4initEPK9dtNavMeshi(ptr noundef nonnull align 8 dereferenceable(104) %48, ptr noundef %49, i32 noundef 2048)
  %51 = icmp slt i32 %50, 0
  br i1 %51, label %52, label %55

52:                                               ; preds = %46
  %53 = getelementptr inbounds i8, ptr %0, i64 184
  %54 = load ptr, ptr %53, align 8
  call void (ptr, i32, ptr, ...) @_ZN9rcContext3logE13rcLogCategoryPKcz(ptr noundef nonnull align 8 dereferenceable(10) %54, i32 noundef 3, ptr noundef nonnull @.str.43)
  br label %68

55:                                               ; preds = %46
  %56 = getelementptr inbounds i8, ptr %0, i64 201
  %57 = load i8, ptr %56, align 1
  %58 = and i8 %57, 1
  %.not7 = icmp eq i8 %58, 0
  br i1 %.not7, label %60, label %59

59:                                               ; preds = %55
  call void @_ZN15Sample_TileMesh13buildAllTilesEv(ptr noundef nonnull align 8 dereferenceable(404) %0)
  br label %60

60:                                               ; preds = %59, %55
  %61 = getelementptr inbounds i8, ptr %0, i64 104
  %62 = load ptr, ptr %61, align 8
  %.not8 = icmp eq ptr %62, null
  br i1 %.not8, label %67, label %63

63:                                               ; preds = %60
  %64 = load ptr, ptr %62, align 8
  %65 = getelementptr inbounds i8, ptr %64, i64 24
  %66 = load ptr, ptr %65, align 8
  call void %66(ptr noundef nonnull align 8 dereferenceable(8) %62, ptr noundef nonnull %0)
  br label %67

67:                                               ; preds = %63, %60
  call void @_ZN6Sample14initToolStatesEPS_(ptr noundef nonnull align 8 dereferenceable(200) %0, ptr noundef nonnull %0)
  br label %68

68:                                               ; preds = %67, %52, %43, %15, %8
  %.0 = phi i1 [ false, %43 ], [ false, %52 ], [ true, %67 ], [ false, %15 ], [ false, %8 ]
  ret i1 %.0
}